(dp0
S'large'
p1
ccopy_reg
_reconstructor
p2
(cpandas.core.series
Series
p3
c__builtin__
object
p4
Ntp5
Rp6
(dp7
S'_data'
p8
g2
(cpandas.core.internals
SingleBlockManager
p9
g4
Ntp10
Rp11
((lp12
cpandas.core.index
_new_Index
p13
(cpandas.core.index
Index
p14
(dp15
S'data'
p16
cnumpy.core.multiarray
_reconstruct
p17
(cnumpy
ndarray
p18
(I0
tp19
S'b'
p20
tp21
Rp22
(I1
(I8
tp23
cnumpy
dtype
p24
(S'O8'
p25
I0
I1
tp26
Rp27
(I3
S'|'
p28
NNNI-1
I-1
I63
tp29
bI00
(lp30
S'count'
p31
aS'mean'
p32
aS'std'
p33
aS'min'
p34
aS'25%'
p35
aS'50%'
p36
aS'75%'
p37
aS'max'
p38
atp39
bsS'name'
p40
Nstp41
Rp42
a(lp43
g17
(g18
(I0
tp44
g20
tp45
Rp46
(I1
(I8
tp47
g24
(S'f8'
p48
I0
I1
tp49
Rp50
(I3
S'<'
p51
NNNI-1
I-1
I0
tp52
bI00
S"\x00\x00\x00\x00\x00\xf0r@8X\xc0:\xb0E\x02A\xb6NF\xdf\xab\xde\x19A\x00\x00\x00\x00\x00\x00\x00\x00\x9a\xb1h:\xdb\x08\x97@\x80\xf0\xa1D'<\xb6@2w-!\xd4\x0c\xe8@\r\x02+\x97\x92*MA"
p53
tp54
ba(lp55
g13
(g14
(dp56
g16
g17
(g18
(I0
tp57
g20
tp58
Rp59
(I1
(I8
tp60
g27
I00
(lp61
g31
ag32
ag33
ag34
ag35
ag36
ag37
ag38
atp62
bsg40
Nstp63
Rp64
a(dp65
S'0.14.1'
p66
(dp67
S'axes'
p68
g12
sS'blocks'
p69
(lp70
(dp71
S'mgr_locs'
p72
c__builtin__
slice
p73
(I0
I8
I1
tp74
Rp75
sS'values'
p76
g46
sasstp77
bsg40
NsbsS'reside'
p78
g2
(g3
g4
Ntp79
Rp80
(dp81
g8
g2
(g9
g4
Ntp82
Rp83
((lp84
g13
(g14
(dp85
g16
g17
(g18
(I0
tp86
g20
tp87
Rp88
(I1
(I8
tp89
g27
I00
(lp90
g31
ag32
ag33
ag34
ag35
ag36
ag37
ag38
atp91
bsg40
Nstp92
Rp93
a(lp94
g17
(g18
(I0
tp95
g20
tp96
Rp97
(I1
(I8
tp98
g50
I00
S'\x00\x00\x00\x00\xc0E\x02A\xb9\xbdL\xd1E{\xc0@\xff\x84jp\xf0u\xc2@\x00\x00\x00\x00\x00\x00\x00\x00\xd7\xbf\xeb3\xc5\xc3\xa7@\xca\x8a\xe1\xea\xd8P\xbb@\x8b72\x8f\x83\x80\xc6@D\xfa\xed\xeb\xa0\xec(A'
p99
tp100
ba(lp101
g13
(g14
(dp102
g16
g17
(g18
(I0
tp103
g20
tp104
Rp105
(I1
(I8
tp106
g27
I00
(lp107
g31
ag32
ag33
ag34
ag35
ag36
ag37
ag38
atp108
bsg40
Nstp109
Rp110
a(dp111
g66
(dp112
g68
g84
sg69
(lp113
(dp114
g72
g73
(I0
I8
I1
tp115
Rp116
sg76
g97
sasstp117
bsg40
NsbsS'small'
p118
g2
(g3
g4
Ntp119
Rp120
(dp121
g8
g2
(g9
g4
Ntp122
Rp123
((lp124
g13
(g14
(dp125
g16
g17
(g18
(I0
tp126
g20
tp127
Rp128
(I1
(I8
tp129
g27
I00
(lp130
g31
ag32
ag33
ag34
ag35
ag36
ag37
ag38
atp131
bsg40
Nstp132
Rp133
a(lp134
g17
(g18
(I0
tp135
g20
tp136
Rp137
(I1
(I8
tp138
g50
I00
S'\x00\x00\x00\x00\x80?\xca@3\x14\x0e)\xfc\x99\xe0@xg\xd8|\xaa\x82\x02A\x00\x00\x00\x00\x00\x00\x00\x00\xb2\xa00(\xb7!\xac@Nb\x10XU~\xc5@:@0G\x9e~\xdc@\xd7\xa3p\xad6\xffgA'
p139
tp140
ba(lp141
g13
(g14
(dp142
g16
g17
(g18
(I0
tp143
g20
tp144
Rp145
(I1
(I8
tp146
g27
I00
(lp147
g31
ag32
ag33
ag34
ag35
ag36
ag37
ag38
atp148
bsg40
Nstp149
Rp150
a(dp151
g66
(dp152
g68
g124
sg69
(lp153
(dp154
g72
g73
(I0
I8
I1
tp155
Rp156
sg76
g137
sasstp157
bsg40
Nsbs.